; Function Attrs: mustprogress nounwind uwtable
define hidden noundef double @_ZNK11G1Analytics31predict_non_young_other_time_msEm(ptr noundef nonnull align 8 dereferenceable(2048) %0, i64 noundef %1) local_unnamed_addr #1 align 2 {
  %3 = getelementptr inbounds i8, ptr %0, i64 1816
  %4 = load ptr, ptr %0, align 8
  %5 = tail call noundef double @_ZNK6AbsSeq4davgEv(ptr noundef nonnull align 8 dereferenceable(56) %3) #7
  %6 = load double, ptr %4, align 8
  %7 = tail call noundef double @_ZNK6AbsSeq3dsdEv(ptr noundef nonnull align 8 dereferenceable(56) %3) #7
  %8 = getelementptr inbounds i8, ptr %0, i64 1824
  %9 = load i32, ptr %8, align 8
  %10 = icmp slt i32 %9, 5
  br i1 %10, label %11, label %_ZNK11G1Analytics20predict_zero_boundedEPK12TruncatedSeq.exit

11:                                               ; preds = %2
  %12 = tail call noundef double @_ZNK6AbsSeq4davgEv(ptr noundef nonnull align 8 dereferenceable(56) %3) #7
  %13 = sub nsw i32 5, %9
  %14 = uitofp nneg i32 %13 to double
  %15 = fmul double %12, %14
  %16 = fmul double %15, 5.000000e-01
  %17 = fcmp ogt double %16, %7
  %18 = select i1 %17, double %16, double %7
  br label %_ZNK11G1Analytics20predict_zero_boundedEPK12TruncatedSeq.exit

_ZNK11G1Analytics20predict_zero_boundedEPK12TruncatedSeq.exit: ; preds = %2, %11
  %.0.i.i.i.i = phi double [ %18, %11 ], [ %7, %2 ]
  %19 = uitofp i64 %1 to double
  %20 = tail call noundef double @llvm.fmuladd.f64(double %6, double %.0.i.i.i.i, double %5)
  %21 = fcmp ogt double %20, 0.000000e+00
  %22 = select i1 %21, double %20, double 0.000000e+00
  %23 = fmul double %22, %19
  ret double %23
}